target datalayout = "e-m:e-p270:32:32-p271:32:32-p272:64:64-i64:64-i128:128-f80:128-n8:16:32:64-S128"
target triple = "x86_64-pc-linux-gnu"

; Function Attrs: inlinehint mustprogress nounwind uwtable
define linkonce_odr dso_local noundef zeroext i1 @_ZSteqIcSt11char_traitsIcESaIcEEbRKNSt7__cxx1112basic_stringIT_T0_T1_EEPKS5_(ptr noundef nonnull align 8 dereferenceable(32) %0, ptr noundef %1) #7 comdat {
  %3 = alloca ptr, align 8
  %4 = alloca ptr, align 8
  store ptr %0, ptr %3, align 8, !tbaa !39
  store ptr %1, ptr %4, align 8, !tbaa !11
  %5 = load ptr, ptr %3, align 8, !tbaa !39
  %6 = load ptr, ptr %4, align 8, !tbaa !11
  %7 = call noundef i32 @_ZNKSt7__cxx1112basic_stringIcSt11char_traitsIcESaIcEE7compareEPKc(ptr noundef nonnull align 8 dereferenceable(32) %5, ptr noundef %6) #18
  %8 = icmp eq i32 %7, 0
  ret i1 %8
}

; Function Attrs: mustprogress uwtable
define dso_local noundef zeroext i1 @_ZN4Luau5Lexer10isReservedERKNSt7__cxx1112basic_stringIcSt11char_traitsIcESaIcEEE(ptr noundef nonnull align 8 dereferenceable(32) %0) #4 align 2 {
  %2 = alloca i1, align 1
  %3 = alloca ptr, align 8
  %4 = alloca i32, align 4
  %5 = alloca i32, align 4
  store ptr %0, ptr %3, align 8, !tbaa !39
  call void @llvm.lifetime.start.p0(i64 4, ptr %4) #18
  store i32 290, ptr %4, align 4, !tbaa !4
  br label %6

6:                                                ; preds = %20, %1
  %7 = load i32, ptr %4, align 4, !tbaa !4
  %8 = icmp slt i32 %7, 311
  br i1 %8, label %10, label %9

9:                                                ; preds = %6
  store i32 2, ptr %5, align 4
  br label %23

10:                                               ; preds = %6
  %11 = load ptr, ptr %3, align 8, !tbaa !39
  %12 = load i32, ptr %4, align 4, !tbaa !4
  %13 = sub nsw i32 %12, 290
  %14 = sext i32 %13 to i64
  %15 = getelementptr inbounds [21 x ptr], ptr @_ZN4LuauL9kReservedE, i64 0, i64 %14
  %16 = load ptr, ptr %15, align 8, !tbaa !11
  %17 = call noundef zeroext i1 @_ZSteqIcSt11char_traitsIcESaIcEEbRKNSt7__cxx1112basic_stringIT_T0_T1_EEPKS5_(ptr noundef nonnull align 8 dereferenceable(32) %11, ptr noundef %16)
  br i1 %17, label %18, label %19

18:                                               ; preds = %10
  store i1 true, ptr %2, align 1
  store i32 1, ptr %5, align 4
  br label %23

19:                                               ; preds = %10
  br label %20

20:                                               ; preds = %19
  %21 = load i32, ptr %4, align 4, !tbaa !4
  %22 = add nsw i32 %21, 1
  store i32 %22, ptr %4, align 4, !tbaa !4
  br label %6, !llvm.loop !105

23:                                               ; preds = %18, %9
  call void @llvm.lifetime.end.p0(i64 4, ptr %4) #18
  %24 = load i32, ptr %5, align 4
  switch i32 %24, label %28 [
    i32 2, label %25
    i32 1, label %26
  ]

25:                                               ; preds = %23
  store i1 false, ptr %2, align 1
  br label %26

26:                                               ; preds = %25, %23
  %27 = load i1, ptr %2, align 1
  ret i1 %27

28:                                               ; preds = %23
  unreachable
}