; Function Attrs: mustprogress nounwind uwtable
define dso_local noundef zeroext i1 @_ZN4Luau5Lexer10isReservedERKNSt7__cxx1112basic_stringIcSt11char_traitsIcESaIcEEE(ptr noundef nonnull align 8 dereferenceable(32) %0) local_unnamed_addr #12 align 2 {
  br label %2

2:                                                ; preds = %2, %1
  %indvars.iv = phi i64 [ 290, %1 ], [ %indvars.iv.next, %2 ]
  %3 = add nsw i64 %indvars.iv, -290
  %4 = getelementptr inbounds [21 x ptr], ptr @_ZN4LuauL9kReservedE, i64 0, i64 %3
  %5 = load ptr, ptr %4, align 8, !tbaa !25
  %6 = tail call noundef i32 @_ZNKSt7__cxx1112basic_stringIcSt11char_traitsIcESaIcEE7compareEPKc(ptr noundef nonnull align 8 dereferenceable(32) %0, ptr noundef %5) #24
  %7 = icmp eq i32 %6, 0
  %indvars.iv.next = add nuw nsw i64 %indvars.iv, 1
  %exitcond.not = icmp eq i64 %indvars.iv.next, 311
  %or.cond = select i1 %7, i1 true, i1 %exitcond.not
  br i1 %or.cond, label %8, label %2, !llvm.loop !90

8:                                                ; preds = %2
  ret i1 %7
}